; Function Attrs: nounwind uwtable
define ptr @l_Std_Format_joinSep___at___private_Lean_Meta_Tactic_FunIndInfo_0__Lean_Meta_reprFunIndInfo____x40_Lean_Meta_Tactic_FunIndInfo___hyg_204____spec__3(ptr noundef %0, ptr noundef %1) local_unnamed_addr #1 {
  %3 = ptrtoint ptr %0 to i64
  %4 = and i64 %3, 1
  %.not.i43 = icmp eq i64 %4, 0
  br i1 %.not.i43, label %8, label %5

5:                                                ; preds = %2
  %6 = lshr i64 %3, 1
  %7 = trunc i64 %6 to i32
  br label %lean_obj_tag.exit

8:                                                ; preds = %2
  %9 = getelementptr i8, ptr %0, i64 4
  %.val.i = load i32, ptr %9, align 4
  %10 = lshr i32 %.val.i, 24
  br label %lean_obj_tag.exit

lean_obj_tag.exit:                                ; preds = %5, %8
  %.0.i = phi i32 [ %7, %5 ], [ %10, %8 ]
  %11 = icmp eq i32 %.0.i, 0
  br i1 %11, label %12, label %22

12:                                               ; preds = %lean_obj_tag.exit
  %13 = ptrtoint ptr %1 to i64
  %14 = and i64 %13, 1
  %.not62 = icmp eq i64 %14, 0
  br i1 %.not62, label %15, label %lean_dec.exit30

15:                                               ; preds = %12
  %16 = load i32, ptr %1, align 4, !tbaa !4
  %17 = icmp sgt i32 %16, 1
  br i1 %17, label %18, label %20, !prof !9

18:                                               ; preds = %15
  %19 = add nsw i32 %16, -1
  store i32 %19, ptr %1, align 4, !tbaa !4
  br label %lean_dec.exit30

20:                                               ; preds = %15
  %.not.i = icmp eq i32 %16, 0
  br i1 %.not.i, label %lean_dec.exit30, label %21

21:                                               ; preds = %20
  tail call void @lean_dec_ref_cold(ptr noundef nonnull %1) #7
  br label %lean_dec.exit30

22:                                               ; preds = %lean_obj_tag.exit
  %23 = getelementptr inbounds nuw i8, ptr %0, i64 8
  %24 = getelementptr inbounds nuw i8, ptr %0, i64 16
  %25 = load ptr, ptr %24, align 8, !tbaa !10
  %26 = ptrtoint ptr %25 to i64
  %27 = and i64 %26, 1
  %.not = icmp eq i64 %27, 0
  br i1 %.not, label %28, label %lean_inc.exit32

28:                                               ; preds = %22
  %.val.i44 = load i32, ptr %25, align 4, !tbaa !4
  %29 = icmp sgt i32 %.val.i44, 0
  br i1 %29, label %30, label %32, !prof !9

30:                                               ; preds = %28
  %31 = add nuw i32 %.val.i44, 1
  store i32 %31, ptr %25, align 4, !tbaa !4
  br label %36

32:                                               ; preds = %28
  %.not.i45 = icmp eq i32 %.val.i44, 0
  br i1 %.not.i45, label %36, label %33

33:                                               ; preds = %32
  tail call void @lean_inc_ref_cold(ptr noundef nonnull %25) #7
  br label %36

lean_inc.exit32:                                  ; preds = %22
  %34 = lshr i64 %26, 1
  %35 = trunc i64 %34 to i32
  br label %lean_obj_tag.exit49

36:                                               ; preds = %33, %32, %30
  %37 = getelementptr i8, ptr %25, i64 4
  %.val.i48 = load i32, ptr %37, align 4
  %38 = lshr i32 %.val.i48, 24
  br label %lean_obj_tag.exit49

lean_obj_tag.exit49:                              ; preds = %lean_inc.exit32, %36
  %.0.i47 = phi i32 [ %35, %lean_inc.exit32 ], [ %38, %36 ]
  %39 = icmp eq i32 %.0.i47, 0
  br i1 %39, label %40, label %76

40:                                               ; preds = %lean_obj_tag.exit49
  %41 = ptrtoint ptr %1 to i64
  %42 = and i64 %41, 1
  %.not59 = icmp eq i64 %42, 0
  br i1 %.not59, label %43, label %lean_dec.exit29

43:                                               ; preds = %40
  %44 = load i32, ptr %1, align 4, !tbaa !4
  %45 = icmp sgt i32 %44, 1
  br i1 %45, label %46, label %48, !prof !9

46:                                               ; preds = %43
  %47 = add nsw i32 %44, -1
  store i32 %47, ptr %1, align 4, !tbaa !4
  br label %lean_dec.exit29

48:                                               ; preds = %43
  %.not.i33 = icmp eq i32 %44, 0
  br i1 %.not.i33, label %lean_dec.exit29, label %49

49:                                               ; preds = %48
  tail call void @lean_dec_ref_cold(ptr noundef nonnull %1) #7
  br label %lean_dec.exit29

lean_dec.exit29:                                  ; preds = %49, %48, %46, %40
  %50 = load ptr, ptr %23, align 8, !tbaa !10
  %51 = ptrtoint ptr %50 to i64
  %52 = and i64 %51, 1
  %.not60 = icmp eq i64 %52, 0
  br i1 %.not60, label %53, label %lean_inc.exit31

53:                                               ; preds = %lean_dec.exit29
  %.val.i50 = load i32, ptr %50, align 4, !tbaa !4
  %54 = icmp sgt i32 %.val.i50, 0
  br i1 %54, label %55, label %57, !prof !9

55:                                               ; preds = %53
  %56 = add nuw i32 %.val.i50, 1
  store i32 %56, ptr %50, align 4, !tbaa !4
  br label %lean_inc.exit31

57:                                               ; preds = %53
  %.not.i51 = icmp eq i32 %.val.i50, 0
  br i1 %.not.i51, label %lean_inc.exit31, label %58

58:                                               ; preds = %57
  tail call void @lean_inc_ref_cold(ptr noundef nonnull %50) #7
  br label %lean_inc.exit31

lean_inc.exit31:                                  ; preds = %58, %57, %55, %lean_dec.exit29
  br i1 %.not.i43, label %59, label %lean_dec.exit28

59:                                               ; preds = %lean_inc.exit31
  %60 = load i32, ptr %0, align 4, !tbaa !4
  %61 = icmp sgt i32 %60, 1
  br i1 %61, label %62, label %64, !prof !9

62:                                               ; preds = %59
  %63 = add nsw i32 %60, -1
  store i32 %63, ptr %0, align 4, !tbaa !4
  br label %lean_dec.exit28

64:                                               ; preds = %59
  %.not.i35 = icmp eq i32 %60, 0
  br i1 %.not.i35, label %lean_dec.exit28, label %65

65:                                               ; preds = %64
  tail call void @lean_dec_ref_cold(ptr noundef nonnull %0) #7
  br label %lean_dec.exit28

lean_dec.exit28:                                  ; preds = %65, %64, %62, %lean_inc.exit31
  %66 = lshr i64 %51, 1
  %67 = trunc i64 %66 to i8
  br i1 %.not60, label %68, label %lean_dec.exit27

68:                                               ; preds = %lean_dec.exit28
  %69 = load i32, ptr %50, align 4, !tbaa !4
  %70 = icmp sgt i32 %69, 1
  br i1 %70, label %71, label %73, !prof !9

71:                                               ; preds = %68
  %72 = add nsw i32 %69, -1
  store i32 %72, ptr %50, align 4, !tbaa !4
  br label %lean_dec.exit27

73:                                               ; preds = %68
  %.not.i37 = icmp eq i32 %69, 0
  br i1 %.not.i37, label %lean_dec.exit27, label %74

74:                                               ; preds = %73
  tail call void @lean_dec_ref_cold(ptr noundef nonnull %50) #7
  br label %lean_dec.exit27

lean_dec.exit27:                                  ; preds = %74, %73, %71, %lean_dec.exit28
  %75 = tail call ptr @l_Bool_repr(i8 noundef zeroext %67, ptr noundef nonnull inttoptr (i64 1 to ptr)) #7
  br label %lean_dec.exit30

76:                                               ; preds = %lean_obj_tag.exit49
  %77 = load ptr, ptr %23, align 8, !tbaa !10
  %78 = ptrtoint ptr %77 to i64
  %79 = and i64 %78, 1
  %.not57 = icmp eq i64 %79, 0
  br i1 %.not57, label %80, label %lean_inc.exit

80:                                               ; preds = %76
  %.val.i53 = load i32, ptr %77, align 4, !tbaa !4
  %81 = icmp sgt i32 %.val.i53, 0
  br i1 %81, label %82, label %84, !prof !9

82:                                               ; preds = %80
  %83 = add nuw i32 %.val.i53, 1
  store i32 %83, ptr %77, align 4, !tbaa !4
  br label %lean_inc.exit

84:                                               ; preds = %80
  %.not.i54 = icmp eq i32 %.val.i53, 0
  br i1 %.not.i54, label %lean_inc.exit, label %85

85:                                               ; preds = %84
  tail call void @lean_inc_ref_cold(ptr noundef nonnull %77) #7
  br label %lean_inc.exit

lean_inc.exit:                                    ; preds = %85, %84, %82, %76
  br i1 %.not.i43, label %86, label %lean_dec.exit26

86:                                               ; preds = %lean_inc.exit
  %87 = load i32, ptr %0, align 4, !tbaa !4
  %88 = icmp sgt i32 %87, 1
  br i1 %88, label %89, label %91, !prof !9

89:                                               ; preds = %86
  %90 = add nsw i32 %87, -1
  store i32 %90, ptr %0, align 4, !tbaa !4
  br label %lean_dec.exit26

91:                                               ; preds = %86
  %.not.i39 = icmp eq i32 %87, 0
  br i1 %.not.i39, label %lean_dec.exit26, label %92

92:                                               ; preds = %91
  tail call void @lean_dec_ref_cold(ptr noundef nonnull %0) #7
  br label %lean_dec.exit26

lean_dec.exit26:                                  ; preds = %92, %91, %89, %lean_inc.exit
  %93 = lshr i64 %78, 1
  %94 = trunc i64 %93 to i8
  br i1 %.not57, label %95, label %lean_dec.exit

95:                                               ; preds = %lean_dec.exit26
  %96 = load i32, ptr %77, align 4, !tbaa !4
  %97 = icmp sgt i32 %96, 1
  br i1 %97, label %98, label %100, !prof !9

98:                                               ; preds = %95
  %99 = add nsw i32 %96, -1
  store i32 %99, ptr %77, align 4, !tbaa !4
  br label %lean_dec.exit

100:                                              ; preds = %95
  %.not.i41 = icmp eq i32 %96, 0
  br i1 %.not.i41, label %lean_dec.exit, label %101

101:                                              ; preds = %100
  tail call void @lean_dec_ref_cold(ptr noundef nonnull %77) #7
  br label %lean_dec.exit

lean_dec.exit:                                    ; preds = %101, %100, %98, %lean_dec.exit26
  %102 = tail call ptr @l_Bool_repr(i8 noundef zeroext %94, ptr noundef nonnull inttoptr (i64 1 to ptr)) #7
  %103 = tail call ptr @l_List_foldl___at___private_Lean_Meta_Tactic_FunIndInfo_0__Lean_Meta_reprFunIndInfo____x40_Lean_Meta_Tactic_FunIndInfo___hyg_204____spec__4(ptr noundef %1, ptr noundef %102, ptr noundef %25)
  br label %lean_dec.exit30

lean_dec.exit30:                                  ; preds = %12, %18, %20, %21, %lean_dec.exit27, %lean_dec.exit
  %.0 = phi ptr [ %75, %lean_dec.exit27 ], [ %103, %lean_dec.exit ], [ inttoptr (i64 1 to ptr), %21 ], [ inttoptr (i64 1 to ptr), %20 ], [ inttoptr (i64 1 to ptr), %18 ], [ inttoptr (i64 1 to ptr), %12 ]
  ret ptr %.0
}